target datalayout = "e-m:e-p270:32:32-p271:32:32-p272:64:64-i64:64-i128:128-f80:128-n8:16:32:64-S128"
target triple = "x86_64-pc-linux-gnu"

%struct.__va_list_tag = type { i32, i32, ptr, ptr }

@enable_dbg_outs = external global i32, align 4
@.str.10 = private unnamed_addr constant [8 x i8] c"Error: \00", align 1
@.str.11 = private unnamed_addr constant [10 x i8] c"Warning: \00", align 1
@stdout = external global ptr, align 8

; Function Attrs: nounwind uwtable
define internal void @Abc_Print(i32 noundef %0, ptr noundef %1, ...) #0 {
  %3 = alloca i32, align 4
  %4 = alloca ptr, align 8
  %5 = alloca [1 x %struct.__va_list_tag], align 16
  %6 = alloca ptr, align 8
  store i32 %0, ptr %3, align 4
  store ptr %1, ptr %4, align 8
  %7 = load i32, ptr @enable_dbg_outs, align 4
  %8 = icmp ne i32 %7, 0
  br i1 %8, label %10, label %9

9:                                                ; preds = %2
  br label %60

10:                                               ; preds = %2
  %11 = call i32 (...) @Abc_FrameIsBridgeMode()
  %12 = icmp ne i32 %11, 0
  br i1 %12, label %25, label %13

13:                                               ; preds = %10
  %14 = load i32, ptr %3, align 4
  %15 = icmp eq i32 %14, -1
  br i1 %15, label %16, label %18

16:                                               ; preds = %13
  %17 = call i32 (ptr, ...) @printf(ptr noundef @.str.10)
  br label %24

18:                                               ; preds = %13
  %19 = load i32, ptr %3, align 4
  %20 = icmp eq i32 %19, 0
  br i1 %20, label %21, label %23

21:                                               ; preds = %18
  %22 = call i32 (ptr, ...) @printf(ptr noundef @.str.11)
  br label %23

23:                                               ; preds = %21, %18
  br label %24

24:                                               ; preds = %23, %16
  br label %39

25:                                               ; preds = %10
  %26 = load i32, ptr %3, align 4
  %27 = icmp eq i32 %26, -1
  br i1 %27, label %28, label %31

28:                                               ; preds = %25
  %29 = load ptr, ptr @stdout, align 8
  %30 = call i32 @Gia_ManToBridgeText(ptr noundef %29, i32 noundef 7, ptr noundef @.str.10)
  br label %38

31:                                               ; preds = %25
  %32 = load i32, ptr %3, align 4
  %33 = icmp eq i32 %32, 0
  br i1 %33, label %34, label %37

34:                                               ; preds = %31
  %35 = load ptr, ptr @stdout, align 8
  %36 = call i32 @Gia_ManToBridgeText(ptr noundef %35, i32 noundef 9, ptr noundef @.str.11)
  br label %37

37:                                               ; preds = %34, %31
  br label %38

38:                                               ; preds = %37, %28
  br label %39

39:                                               ; preds = %38, %24
  %40 = getelementptr inbounds [1 x %struct.__va_list_tag], ptr %5, i64 0, i64 0
  call void @llvm.va_start(ptr %40)
  %41 = call i32 (...) @Abc_FrameIsBridgeMode()
  %42 = icmp ne i32 %41, 0
  br i1 %42, label %43, label %54

43:                                               ; preds = %39
  %44 = load ptr, ptr %4, align 8
  %45 = getelementptr inbounds [1 x %struct.__va_list_tag], ptr %5, i64 0, i64 0
  %46 = call ptr @vnsprintf(ptr noundef %44, ptr noundef %45)
  store ptr %46, ptr %6, align 8
  %47 = load ptr, ptr @stdout, align 8
  %48 = load ptr, ptr %6, align 8
  %49 = call i64 @strlen(ptr noundef %48) #8
  %50 = trunc i64 %49 to i32
  %51 = load ptr, ptr %6, align 8
  %52 = call i32 @Gia_ManToBridgeText(ptr noundef %47, i32 noundef %50, ptr noundef %51)
  %53 = load ptr, ptr %6, align 8
  call void @free(ptr noundef %53) #10
  br label %58

54:                                               ; preds = %39
  %55 = load ptr, ptr %4, align 8
  %56 = getelementptr inbounds [1 x %struct.__va_list_tag], ptr %5, i64 0, i64 0
  %57 = call i32 @vprintf(ptr noundef %55, ptr noundef %56) #10
  br label %58

58:                                               ; preds = %54, %43
  %59 = getelementptr inbounds [1 x %struct.__va_list_tag], ptr %5, i64 0, i64 0
  call void @llvm.va_end(ptr %59)
  br label %60

60:                                               ; preds = %58, %9
  ret void
}